target datalayout = "e-m:e-p270:32:32-p271:32:32-p272:64:64-i64:64-i128:128-f80:128-n8:16:32:64-S128"
target triple = "x86_64-pc-linux-gnu"

%"struct.faiss::ParameterSpace" = type { ptr, %"class.std::vector.14", i32, i32, i64, i8, double }
%"class.std::vector.14" = type { %"struct.std::_Vector_base.15" }
%"struct.std::_Vector_base.15" = type { %"struct.std::_Vector_base<faiss::ParameterRange, std::allocator<faiss::ParameterRange>>::_Vector_impl" }
%"struct.std::_Vector_base<faiss::ParameterRange, std::allocator<faiss::ParameterRange>>::_Vector_impl" = type { %"struct.std::_Vector_base<faiss::ParameterRange, std::allocator<faiss::ParameterRange>>::_Vector_impl_data" }
%"struct.std::_Vector_base<faiss::ParameterRange, std::allocator<faiss::ParameterRange>>::_Vector_impl_data" = type { ptr, ptr, ptr }

; Function Attrs: mustprogress nounwind uwtable
define linkonce_odr void @_ZNSt15__new_allocatorIN5faiss14ParameterRangeEEC2Ev(ptr noundef nonnull align 1 dereferenceable(1) %0) unnamed_addr #1 comdat align 2 {
  %2 = alloca ptr, align 8
  store ptr %0, ptr %2, align 8
  ret void
}

; Function Attrs: mustprogress nounwind uwtable
define linkonce_odr void @_ZNSt12_Vector_baseIN5faiss14ParameterRangeESaIS1_EE17_Vector_impl_dataC2Ev(ptr noundef nonnull align 8 dereferenceable(24) %0) unnamed_addr #1 comdat align 2 {
  %2 = alloca ptr, align 8
  store ptr %0, ptr %2, align 8
  %3 = load ptr, ptr %2, align 8
  %4 = getelementptr inbounds %"struct.std::_Vector_base<faiss::ParameterRange, std::allocator<faiss::ParameterRange>>::_Vector_impl_data", ptr %3, i32 0, i32 0
  store ptr null, ptr %4, align 8
  %5 = getelementptr inbounds %"struct.std::_Vector_base<faiss::ParameterRange, std::allocator<faiss::ParameterRange>>::_Vector_impl_data", ptr %3, i32 0, i32 1
  store ptr null, ptr %5, align 8
  %6 = getelementptr inbounds %"struct.std::_Vector_base<faiss::ParameterRange, std::allocator<faiss::ParameterRange>>::_Vector_impl_data", ptr %3, i32 0, i32 2
  store ptr null, ptr %6, align 8
  ret void
}

; Function Attrs: mustprogress nounwind uwtable
define linkonce_odr void @_ZNSaIN5faiss14ParameterRangeEEC2Ev(ptr noundef nonnull align 1 dereferenceable(1) %0) unnamed_addr #1 comdat align 2 {
  %2 = alloca ptr, align 8
  store ptr %0, ptr %2, align 8
  %3 = load ptr, ptr %2, align 8
  call void @_ZNSt15__new_allocatorIN5faiss14ParameterRangeEEC2Ev(ptr noundef nonnull align 1 dereferenceable(1) %3) #5
  ret void
}

; Function Attrs: mustprogress nounwind uwtable
define linkonce_odr void @_ZNSt12_Vector_baseIN5faiss14ParameterRangeESaIS1_EE12_Vector_implC2Ev(ptr noundef nonnull align 8 dereferenceable(24) %0) unnamed_addr #1 comdat align 2 {
  %2 = alloca ptr, align 8
  store ptr %0, ptr %2, align 8
  %3 = load ptr, ptr %2, align 8
  call void @_ZNSaIN5faiss14ParameterRangeEEC2Ev(ptr noundef nonnull align 1 dereferenceable(1) %3) #5
  call void @_ZNSt12_Vector_baseIN5faiss14ParameterRangeESaIS1_EE17_Vector_impl_dataC2Ev(ptr noundef nonnull align 8 dereferenceable(24) %3) #5
  ret void
}

; Function Attrs: mustprogress nounwind uwtable
define linkonce_odr void @_ZNSt12_Vector_baseIN5faiss14ParameterRangeESaIS1_EEC2Ev(ptr noundef nonnull align 8 dereferenceable(24) %0) unnamed_addr #1 comdat align 2 {
  %2 = alloca ptr, align 8
  store ptr %0, ptr %2, align 8
  %3 = load ptr, ptr %2, align 8
  %4 = getelementptr inbounds %"struct.std::_Vector_base.15", ptr %3, i32 0, i32 0
  call void @_ZNSt12_Vector_baseIN5faiss14ParameterRangeESaIS1_EE12_Vector_implC2Ev(ptr noundef nonnull align 8 dereferenceable(24) %4) #5
  ret void
}

; Function Attrs: mustprogress nounwind uwtable
define linkonce_odr void @_ZNSt6vectorIN5faiss14ParameterRangeESaIS1_EEC2Ev(ptr noundef nonnull align 8 dereferenceable(24) %0) unnamed_addr #1 comdat align 2 {
  %2 = alloca ptr, align 8
  store ptr %0, ptr %2, align 8
  %3 = load ptr, ptr %2, align 8
  call void @_ZNSt12_Vector_baseIN5faiss14ParameterRangeESaIS1_EEC2Ev(ptr noundef nonnull align 8 dereferenceable(24) %3) #5
  ret void
}

; Function Attrs: mustprogress nounwind uwtable
define void @_ZN5faiss14ParameterSpaceC2Ev(ptr noundef nonnull align 8 dereferenceable(64) %0) unnamed_addr #1 align 2 {
  %2 = alloca ptr, align 8
  store ptr %0, ptr %2, align 8
  %3 = load ptr, ptr %2, align 8
  store ptr getelementptr inbounds ({ [6 x ptr] }, ptr @_ZTVN5faiss14ParameterSpaceE, i32 0, i32 0, i32 2), ptr %3, align 8
  %4 = getelementptr inbounds %"struct.faiss::ParameterSpace", ptr %3, i32 0, i32 1
  call void @_ZNSt6vectorIN5faiss14ParameterRangeESaIS1_EEC2Ev(ptr noundef nonnull align 8 dereferenceable(24) %4) #5
  %5 = getelementptr inbounds %"struct.faiss::ParameterSpace", ptr %3, i32 0, i32 2
  store i32 1, ptr %5, align 8
  %6 = getelementptr inbounds %"struct.faiss::ParameterSpace", ptr %3, i32 0, i32 3
  store i32 500, ptr %6, align 4
  %7 = getelementptr inbounds %"struct.faiss::ParameterSpace", ptr %3, i32 0, i32 4
  store i64 1073741824, ptr %7, align 8
  %8 = getelementptr inbounds %"struct.faiss::ParameterSpace", ptr %3, i32 0, i32 5
  store i8 0, ptr %8, align 8
  %9 = getelementptr inbounds %"struct.faiss::ParameterSpace", ptr %3, i32 0, i32 6
  store double 0.000000e+00, ptr %9, align 8
  ret void
}