; Function Attrs: mustprogress nofree norecurse nosync nounwind willreturn memory(argmem: write) uwtable
define void @_ZN5faiss14ParameterSpaceC2Ev(ptr nocapture noundef nonnull writeonly align 8 dereferenceable(64) %0) unnamed_addr #5 align 2 {
  store ptr getelementptr inbounds ({ [6 x ptr] }, ptr @_ZTVN5faiss14ParameterSpaceE, i64 0, i32 0, i64 2), ptr %0, align 8
  %2 = getelementptr inbounds i8, ptr %0, i64 8
  tail call void @llvm.memset.p0.i64(ptr noundef nonnull align 8 dereferenceable(24) %2, i8 0, i64 24, i1 false)
  %3 = getelementptr inbounds i8, ptr %0, i64 32
  store i32 1, ptr %3, align 8
  %4 = getelementptr inbounds i8, ptr %0, i64 36
  store i32 500, ptr %4, align 4
  %5 = getelementptr inbounds i8, ptr %0, i64 40
  store i64 1073741824, ptr %5, align 8
  %6 = getelementptr inbounds i8, ptr %0, i64 48
  store i8 0, ptr %6, align 8
  %7 = getelementptr inbounds i8, ptr %0, i64 56
  store double 0.000000e+00, ptr %7, align 8
  ret void
}